{
   supp1
   Memcheck:Cond
   fun:_ZN2RS2gf3mulEtt
   fun:_ZN2RS2gf9poly_evalEPKNS_4PolyEt
   fun:_ZN2RS11ReedSolomonILh80ELh20EE10FindErrorsEPKNS_4PolyEm
   fun:_ZN2RS11ReedSolomonILh80ELh20EE11DecodeBlockEPKvS3_PvPhm
   fun:_ZN2RS11ReedSolomonILh80ELh20EE6DecodeEPKvPvPhm
   fun:_ZN6Packet9decode_l2EPKcjiRi
   fun:_ZN7Network10radio_recvEPKcji
   fun:_Z21radio_recv_trampolinePKcji
   fun:_Z11lora_emu_rxv
   fun:main
}
{
   supp2
   Memcheck:Cond
   fun:_ZN2RS11ReedSolomonILh80ELh20EE10FindErrorsEPKNS_4PolyEm
   fun:_ZN2RS11ReedSolomonILh80ELh20EE11DecodeBlockEPKvS3_PvPhm
   fun:_ZN2RS11ReedSolomonILh80ELh20EE6DecodeEPKvPvPhm
   fun:_ZN6Packet9decode_l2EPKcjiRi
   fun:_ZN7Network10radio_recvEPKcji
   fun:_Z21radio_recv_trampolinePKcji
   fun:_Z11lora_emu_rxv
   fun:main
}
{
   supp3
   Memcheck:Cond
   fun:_ZN2RS2gf3mulEtt
   fun:_ZN2RS2gf9poly_evalEPKNS_4PolyEt
   fun:_ZN2RS11ReedSolomonILh80ELh20EE10FindErrorsEPKNS_4PolyEm
   fun:_ZN2RS11ReedSolomonILh80ELh20EE11DecodeBlockEPKvS3_PvPhm
   fun:_ZN2RS11ReedSolomonILh80ELh20EE6DecodeEPKvPvPhm
   fun:_ZN6Packet9decode_l2EPKcmiRi
   fun:_ZN7Network10radio_recvEPKcmi
   fun:_Z21radio_recv_trampolinePKcmi
   fun:_Z11lora_emu_rxv
   fun:main
}
{
   supp4
   Memcheck:Cond
   fun:_ZN2RS11ReedSolomonILh80ELh20EE10FindErrorsEPKNS_4PolyEm
   fun:_ZN2RS11ReedSolomonILh80ELh20EE11DecodeBlockEPKvS3_PvPhm
   fun:_ZN2RS11ReedSolomonILh80ELh20EE6DecodeEPKvPvPhm
   fun:_ZN6Packet9decode_l2EPKcmiRi
   fun:_ZN7Network10radio_recvEPKcmi
   fun:_Z21radio_recv_trampolinePKcmi
   fun:_Z11lora_emu_rxv
   fun:main
}
{
   supp5
   Memcheck:Value8
   fun:_ZN2RS2gf3mulEtt
   fun:_ZN2RS2gf9poly_evalEPKNS_4PolyEt
   fun:_ZN2RS11ReedSolomonILh80ELh20EE10FindErrorsEPKNS_4PolyEm
   fun:_ZN2RS11ReedSolomonILh80ELh20EE11DecodeBlockEPKvS3_PvPhm
   fun:_ZN2RS11ReedSolomonILh80ELh20EE6DecodeEPKvPvPhm
   fun:_ZN6Packet9decode_l2EPKcmiRi
   fun:_ZN7Network10radio_recvEPKcmi
   fun:_Z21radio_recv_trampolinePKcmi
   fun:_Z11lora_emu_rxv
   fun:main
}
{
   supp6
   Memcheck:Value8
   fun:_ZN2RS2gf3mulEtt
   fun:_ZN2RS2gf9poly_evalEPKNS_4PolyEt
   fun:_ZN2RS11ReedSolomonILh80ELh20EE10FindErrorsEPKNS_4PolyEm
   fun:_ZN2RS11ReedSolomonILh80ELh20EE11DecodeBlockEPKvS3_PvPhm
   fun:_ZN2RS11ReedSolomonILh80ELh20EE6DecodeEPKvPvPhm
   fun:_ZN6Packet9decode_l2EPKcmiRi
   fun:_ZN7Network10radio_recvEPKcmi
   fun:_Z21radio_recv_trampolinePKcmi
   fun:_Z11lora_emu_rxv
   fun:main
}
{
   <insert_a_suppression_name_here>
   Memcheck:Cond
   fun:_ZN2RS2gf3mulEtt
   fun:_ZN2RS2gf9poly_evalEPKNS_4PolyEt
   fun:_ZN2RS11ReedSolomonILh80ELh20EE10FindErrorsEPKNS_4PolyEm
   fun:_ZN2RS11ReedSolomonILh80ELh20EE11DecodeBlockEPKvS3_PvPhm
   fun:_ZN2RS11ReedSolomonILh80ELh20EE6DecodeEPKvPvPhm
   fun:_ZN6Packet9decode_l2EPKcmiRib
   fun:_ZN6Packet10decode_l2eEPKcmiRi
   fun:_ZN7Network10radio_recvEPKcmi
   fun:_Z21radio_recv_trampolinePKcmi
   fun:_Z11lora_emu_rxv
   fun:main
}
{
   <insert_a_suppression_name_here>
   Memcheck:Cond
   fun:_ZN2RS11ReedSolomonILh80ELh20EE10FindErrorsEPKNS_4PolyEm
   fun:_ZN2RS11ReedSolomonILh80ELh20EE11DecodeBlockEPKvS3_PvPhm
   fun:_ZN2RS11ReedSolomonILh80ELh20EE6DecodeEPKvPvPhm
   fun:_ZN6Packet9decode_l2EPKcmiRib
   fun:_ZN6Packet10decode_l2eEPKcmiRi
   fun:_ZN7Network10radio_recvEPKcmi
   fun:_Z21radio_recv_trampolinePKcmi
   fun:_Z11lora_emu_rxv
   fun:main
}
{
   <insert_a_suppression_name_here>
   Memcheck:Value8
   fun:_ZN2RS2gf3mulEtt
   fun:_ZN2RS2gf9poly_evalEPKNS_4PolyEt
   fun:_ZN2RS11ReedSolomonILh80ELh20EE10FindErrorsEPKNS_4PolyEm
   fun:_ZN2RS11ReedSolomonILh80ELh20EE11DecodeBlockEPKvS3_PvPhm
   fun:_ZN2RS11ReedSolomonILh80ELh20EE6DecodeEPKvPvPhm
   fun:_ZN6Packet9decode_l2EPKcmiRib
   fun:_ZN6Packet10decode_l2eEPKcmiRi
   fun:_ZN7Network10radio_recvEPKcmi
   fun:_Z21radio_recv_trampolinePKcmi
   fun:_Z11lora_emu_rxv
   fun:main
}
{
   <insert_a_suppression_name_here>
   Memcheck:Cond
   fun:_ZN2RS2gf3mulEtt
   fun:_ZN2RS2gf9poly_evalEPKNS_4PolyEt
   fun:_ZN2RS11ReedSolomonILh50ELh10EE10FindErrorsEPKNS_4PolyEm
   fun:_ZN2RS11ReedSolomonILh50ELh10EE11DecodeBlockEPKvS3_PvPhm
   fun:_ZN2RS11ReedSolomonILh50ELh10EE6DecodeEPKvPvPhm
   fun:_ZN6Packet9decode_l2EPKcmiRib
   fun:_ZN6Packet10decode_l2eEPKcmiRi
   fun:_ZN7Network10radio_recvEPKcmi
   fun:_Z21radio_recv_trampolinePKcmi
   fun:_Z11lora_emu_rxv
   fun:main
}
{
   <insert_a_suppression_name_here>
   Memcheck:Cond
   fun:_ZN2RS11ReedSolomonILh50ELh10EE10FindErrorsEPKNS_4PolyEm
   fun:_ZN2RS11ReedSolomonILh50ELh10EE11DecodeBlockEPKvS3_PvPhm
   fun:_ZN2RS11ReedSolomonILh50ELh10EE6DecodeEPKvPvPhm
   fun:_ZN6Packet9decode_l2EPKcmiRib
   fun:_ZN6Packet10decode_l2eEPKcmiRi
   fun:_ZN7Network10radio_recvEPKcmi
   fun:_Z21radio_recv_trampolinePKcmi
   fun:_Z11lora_emu_rxv
   fun:main
}
{
   <insert_a_suppression_name_here>
   Memcheck:Cond
   fun:_ZN2RS2gf3mulEtt
   fun:_ZN2RS2gf9poly_evalEPKNS_4PolyEt
   fun:_ZN2RS11ReedSolomonILh50ELh10EE10FindErrorsEPKNS_4PolyEm
   fun:_ZN2RS11ReedSolomonILh50ELh10EE11DecodeBlockEPKvS3_PvPhm
   fun:_ZN2RS11ReedSolomonILh50ELh10EE6DecodeEPKvPvPhm
   fun:_ZN6LoRaL210decode_fecEPKhmRmRi
   fun:_ZN6LoRaL27on_recvEiPhm
   fun:_Z11lora_emu_rxv
   fun:main
}
{
   <insert_a_suppression_name_here>
   Memcheck:Cond
   fun:_ZN2RS11ReedSolomonILh50ELh10EE10FindErrorsEPKNS_4PolyEm
   fun:_ZN2RS11ReedSolomonILh50ELh10EE11DecodeBlockEPKvS3_PvPhm
   fun:_ZN2RS11ReedSolomonILh50ELh10EE6DecodeEPKvPvPhm
   fun:_ZN6LoRaL210decode_fecEPKhmRmRi
   fun:_ZN6LoRaL27on_recvEiPhm
   fun:_Z11lora_emu_rxv
   fun:main
}
